(dp0
S'engine'
p1
Vpdflatex
p2
sS'packages'
p3
c__builtin__
set
p4
((lp5
S'srcltx'
p6
aS'scrtime'
p7
aS'amsbsy'
p8
aS'amsmath'
p9
aS'babel'
p10
aS'float'
p11
aS'nicefrac'
p12
aS'inputenc'
p13
aS'fontenc'
p14
aS'enumerate'
p15
aS'palatino'
p16
aS'graphicx'
p17
aS'amssymb'
p18
atp19
Rp20
sS'files_with_guttermarks'
p21
g4
((lp22
S'td.tex'
p23
atp24
Rp25
sS'synctex'
p26
I01
s.